; ModuleID = '58/1031.c'
source_filename = "58/1031.c"
target datalayout = "e-m:e-p270:32:32-p271:32:32-p272:64:64-i64:64-f80:128-n8:16:32:64-S128"
target triple = "x86_64-pc-linux-gnu"

@.str = private unnamed_addr constant [3 x i8] c"%d\00", align 1
@.str.1 = private unnamed_addr constant [3 x i8] c"1\0A\00", align 1
@.str.2 = private unnamed_addr constant [3 x i8] c"0\0A\00", align 1

; Function Attrs: noinline nounwind uwtable
define dso_local i32 @main() #0 {
  %1 = alloca i32, align 4
  %2 = alloca i32, align 4
  %3 = alloca i32, align 4
  %4 = alloca i32, align 4
  %5 = alloca i32, align 4
  %6 = alloca [81 x i8], align 16
  %7 = alloca i8*, align 8
  store i32 0, i32* %1, align 4
  %8 = call i32 (i8*, ...) @__isoc99_scanf(i8* getelementptr inbounds ([3 x i8], [3 x i8]* @.str, i64 0, i64 0), i32* %2)
  %9 = call i32 @getchar()
  store i32 1, i32* %3, align 4
  br label %10

10:                                               ; preds = %110, %0
  %11 = load i32, i32* %3, align 4
  %12 = load i32, i32* %2, align 4
  %13 = icmp sle i32 %11, %12
  br i1 %13, label %14, label %113

14:                                               ; preds = %10
  %15 = getelementptr inbounds [81 x i8], [81 x i8]* %6, i64 0, i64 0
  %16 = call i32 (i8*, ...) bitcast (i32 (...)* @gets to i32 (i8*, ...)*)(i8* %15)
  %17 = getelementptr inbounds [81 x i8], [81 x i8]* %6, i64 0, i64 0
  %18 = call i64 @strlen(i8* %17) #3
  %19 = trunc i64 %18 to i32
  store i32 %19, i32* %4, align 4
  %20 = getelementptr inbounds [81 x i8], [81 x i8]* %6, i64 0, i64 0
  store i8* %20, i8** %7, align 8
  store i32 0, i32* %5, align 4
  %21 = load i8*, i8** %7, align 8
  %22 = load i8, i8* %21, align 1
  %23 = sext i8 %22 to i32
  %24 = icmp sge i32 %23, 97
  br i1 %24, label %25, label %30

25:                                               ; preds = %14
  %26 = load i8*, i8** %7, align 8
  %27 = load i8, i8* %26, align 1
  %28 = sext i8 %27 to i32
  %29 = icmp sle i32 %28, 122
  br i1 %29, label %45, label %30

30:                                               ; preds = %25, %14
  %31 = load i8*, i8** %7, align 8
  %32 = load i8, i8* %31, align 1
  %33 = sext i8 %32 to i32
  %34 = icmp sge i32 %33, 65
  br i1 %34, label %35, label %40

35:                                               ; preds = %30
  %36 = load i8*, i8** %7, align 8
  %37 = load i8, i8* %36, align 1
  %38 = sext i8 %37 to i32
  %39 = icmp sle i32 %38, 90
  br i1 %39, label %45, label %40

40:                                               ; preds = %35, %30
  %41 = load i8*, i8** %7, align 8
  %42 = load i8, i8* %41, align 1
  %43 = sext i8 %42 to i32
  %44 = icmp eq i32 %43, 95
  br i1 %44, label %45, label %99

45:                                               ; preds = %40, %35, %25
  %46 = getelementptr inbounds [81 x i8], [81 x i8]* %6, i64 0, i64 0
  %47 = getelementptr inbounds i8, i8* %46, i64 1
  store i8* %47, i8** %7, align 8
  br label %48

48:                                               ; preds = %95, %45
  %49 = load i8*, i8** %7, align 8
  %50 = getelementptr inbounds [81 x i8], [81 x i8]* %6, i64 0, i64 0
  %51 = load i32, i32* %4, align 4
  %52 = sext i32 %51 to i64
  %53 = getelementptr inbounds i8, i8* %50, i64 %52
  %54 = icmp ult i8* %49, %53
  br i1 %54, label %55, label %98

55:                                               ; preds = %48
  %56 = load i8*, i8** %7, align 8
  %57 = load i8, i8* %56, align 1
  %58 = sext i8 %57 to i32
  %59 = icmp sge i32 %58, 97
  br i1 %59, label %60, label %65

60:                                               ; preds = %55
  %61 = load i8*, i8** %7, align 8
  %62 = load i8, i8* %61, align 1
  %63 = sext i8 %62 to i32
  %64 = icmp sle i32 %63, 122
  br i1 %64, label %90, label %65

65:                                               ; preds = %60, %55
  %66 = load i8*, i8** %7, align 8
  %67 = load i8, i8* %66, align 1
  %68 = sext i8 %67 to i32
  %69 = icmp sge i32 %68, 65
  br i1 %69, label %70, label %75

70:                                               ; preds = %65
  %71 = load i8*, i8** %7, align 8
  %72 = load i8, i8* %71, align 1
  %73 = sext i8 %72 to i32
  %74 = icmp sle i32 %73, 90
  br i1 %74, label %90, label %75

75:                                               ; preds = %70, %65
  %76 = load i8*, i8** %7, align 8
  %77 = load i8, i8* %76, align 1
  %78 = sext i8 %77 to i32
  %79 = icmp eq i32 %78, 95
  br i1 %79, label %90, label %80

80:                                               ; preds = %75
  %81 = load i8*, i8** %7, align 8
  %82 = load i8, i8* %81, align 1
  %83 = sext i8 %82 to i32
  %84 = icmp sge i32 %83, 48
  br i1 %84, label %85, label %91

85:                                               ; preds = %80
  %86 = load i8*, i8** %7, align 8
  %87 = load i8, i8* %86, align 1
  %88 = sext i8 %87 to i32
  %89 = icmp sle i32 %88, 57
  br i1 %89, label %90, label %91

90:                                               ; preds = %85, %75, %70, %60
  br label %94

91:                                               ; preds = %85, %80
  %92 = load i32, i32* %5, align 4
  %93 = add nsw i32 %92, 1
  store i32 %93, i32* %5, align 4
  br label %94

94:                                               ; preds = %91, %90
  br label %95

95:                                               ; preds = %94
  %96 = load i8*, i8** %7, align 8
  %97 = getelementptr inbounds i8, i8* %96, i32 1
  store i8* %97, i8** %7, align 8
  br label %48

98:                                               ; preds = %48
  br label %102

99:                                               ; preds = %40
  %100 = load i32, i32* %5, align 4
  %101 = add nsw i32 %100, 1
  store i32 %101, i32* %5, align 4
  br label %102

102:                                              ; preds = %99, %98
  %103 = load i32, i32* %5, align 4
  %104 = icmp eq i32 %103, 0
  br i1 %104, label %105, label %107

105:                                              ; preds = %102
  %106 = call i32 (i8*, ...) @printf(i8* getelementptr inbounds ([3 x i8], [3 x i8]* @.str.1, i64 0, i64 0))
  br label %109

107:                                              ; preds = %102
  %108 = call i32 (i8*, ...) @printf(i8* getelementptr inbounds ([3 x i8], [3 x i8]* @.str.2, i64 0, i64 0))
  br label %109

109:                                              ; preds = %107, %105
  br label %110

110:                                              ; preds = %109
  %111 = load i32, i32* %3, align 4
  %112 = add nsw i32 %111, 1
  store i32 %112, i32* %3, align 4
  br label %10

113:                                              ; preds = %10
  ret i32 0
}

declare dso_local i32 @__isoc99_scanf(i8*, ...) #1

declare dso_local i32 @getchar() #1

declare dso_local i32 @gets(...) #1

; Function Attrs: nounwind readonly
declare dso_local i64 @strlen(i8*) #2

declare dso_local i32 @printf(i8*, ...) #1


!llvm.module.flags = !{!0}
!llvm.ident = !{!1}

!0 = !{i32 1, !"wchar_size", i32 4}
!1 = !{!"clang version 10.0.0-4ubuntu1 "}
